target datalayout = "e-m:e-p270:32:32-p271:32:32-p272:64:64-i64:64-i128:128-f80:128-n8:16:32:64-S128"
target triple = "x86_64-pc-linux-gnu"

%struct.jpeg_compress_struct = type { ptr, ptr, ptr, ptr, i32, i32, ptr, i32, i32, i32, i32, double, i32, i32, i32, ptr, [4 x ptr], [4 x ptr], [4 x ptr], [16 x i8], [16 x i8], [16 x i8], i32, ptr, i32, i32, i32, i32, i32, i32, i32, i32, i32, i8, i8, i8, i16, i16, i32, i32, i32, i32, i32, i32, i32, [4 x ptr], i32, i32, i32, [10 x i32], i32, i32, i32, i32, ptr, ptr, ptr, ptr, ptr, ptr, ptr, ptr, ptr, ptr, i32 }
%struct.jpeg_memory_mgr = type { ptr, ptr, ptr, ptr, ptr, ptr, ptr, ptr, ptr, ptr, ptr, i64, i64 }
%struct._tga_source_struct = type { %struct.cjpeg_source_struct, ptr, ptr, ptr, i32, ptr, [4 x i8], i32, i32, i32, i32, ptr }
%struct.cjpeg_source_struct = type { ptr, ptr, ptr, ptr, ptr, ptr, ptr, i32, i32 }
%struct.cdjpeg_progress_mgr = type { %struct.jpeg_progress_mgr, i32, i32, i32, i32, i32 }
%struct.jpeg_progress_mgr = type { ptr, i64, i64, i32, i32 }

; Function Attrs: nounwind uwtable
define internal i32 @get_memory_row(ptr noundef %0, ptr noundef %1) #0 {
  %3 = alloca ptr, align 8
  %4 = alloca ptr, align 8
  %5 = alloca ptr, align 8
  %6 = alloca i32, align 4
  store ptr %0, ptr %3, align 8
  store ptr %1, ptr %4, align 8
  %7 = load ptr, ptr %4, align 8
  store ptr %7, ptr %5, align 8
  %8 = load ptr, ptr %3, align 8
  %9 = getelementptr inbounds %struct.jpeg_compress_struct, ptr %8, i32 0, i32 8
  %10 = load i32, ptr %9, align 4
  %11 = load ptr, ptr %5, align 8
  %12 = getelementptr inbounds %struct._tga_source_struct, ptr %11, i32 0, i32 4
  %13 = load i32, ptr %12, align 8
  %14 = sub i32 %10, %13
  %15 = sub i32 %14, 1
  store i32 %15, ptr %6, align 4
  %16 = load ptr, ptr %3, align 8
  %17 = getelementptr inbounds %struct.jpeg_compress_struct, ptr %16, i32 0, i32 1
  %18 = load ptr, ptr %17, align 8
  %19 = getelementptr inbounds %struct.jpeg_memory_mgr, ptr %18, i32 0, i32 7
  %20 = load ptr, ptr %19, align 8
  %21 = load ptr, ptr %3, align 8
  %22 = load ptr, ptr %5, align 8
  %23 = getelementptr inbounds %struct._tga_source_struct, ptr %22, i32 0, i32 3
  %24 = load ptr, ptr %23, align 8
  %25 = load i32, ptr %6, align 4
  %26 = call ptr %20(ptr noundef %21, ptr noundef %24, i32 noundef %25, i32 noundef 1, i32 noundef 0)
  %27 = load ptr, ptr %5, align 8
  %28 = getelementptr inbounds %struct._tga_source_struct, ptr %27, i32 0, i32 0
  %29 = getelementptr inbounds %struct.cjpeg_source_struct, ptr %28, i32 0, i32 4
  store ptr %26, ptr %29, align 8
  %30 = load ptr, ptr %5, align 8
  %31 = getelementptr inbounds %struct._tga_source_struct, ptr %30, i32 0, i32 4
  %32 = load i32, ptr %31, align 8
  %33 = add i32 %32, 1
  store i32 %33, ptr %31, align 8
  ret i32 1
}

; Function Attrs: nounwind uwtable
define internal i32 @preload_image(ptr noundef %0, ptr noundef %1) #0 {
  %3 = alloca ptr, align 8
  %4 = alloca ptr, align 8
  %5 = alloca ptr, align 8
  %6 = alloca i32, align 4
  %7 = alloca ptr, align 8
  store ptr %0, ptr %3, align 8
  store ptr %1, ptr %4, align 8
  %8 = load ptr, ptr %4, align 8
  store ptr %8, ptr %5, align 8
  %9 = load ptr, ptr %3, align 8
  %10 = getelementptr inbounds %struct.jpeg_compress_struct, ptr %9, i32 0, i32 2
  %11 = load ptr, ptr %10, align 8
  store ptr %11, ptr %7, align 8
  store i32 0, ptr %6, align 4
  br label %12

12:                                               ; preds = %60, %2
  %13 = load i32, ptr %6, align 4
  %14 = load ptr, ptr %3, align 8
  %15 = getelementptr inbounds %struct.jpeg_compress_struct, ptr %14, i32 0, i32 8
  %16 = load i32, ptr %15, align 4
  %17 = icmp ult i32 %13, %16
  br i1 %17, label %18, label %63

18:                                               ; preds = %12
  %19 = load ptr, ptr %7, align 8
  %20 = icmp ne ptr %19, null
  br i1 %20, label %21, label %39

21:                                               ; preds = %18
  %22 = load i32, ptr %6, align 4
  %23 = zext i32 %22 to i64
  %24 = load ptr, ptr %7, align 8
  %25 = getelementptr inbounds %struct.cdjpeg_progress_mgr, ptr %24, i32 0, i32 0
  %26 = getelementptr inbounds %struct.jpeg_progress_mgr, ptr %25, i32 0, i32 1
  store i64 %23, ptr %26, align 8
  %27 = load ptr, ptr %3, align 8
  %28 = getelementptr inbounds %struct.jpeg_compress_struct, ptr %27, i32 0, i32 8
  %29 = load i32, ptr %28, align 4
  %30 = zext i32 %29 to i64
  %31 = load ptr, ptr %7, align 8
  %32 = getelementptr inbounds %struct.cdjpeg_progress_mgr, ptr %31, i32 0, i32 0
  %33 = getelementptr inbounds %struct.jpeg_progress_mgr, ptr %32, i32 0, i32 2
  store i64 %30, ptr %33, align 8
  %34 = load ptr, ptr %7, align 8
  %35 = getelementptr inbounds %struct.cdjpeg_progress_mgr, ptr %34, i32 0, i32 0
  %36 = getelementptr inbounds %struct.jpeg_progress_mgr, ptr %35, i32 0, i32 0
  %37 = load ptr, ptr %36, align 8
  %38 = load ptr, ptr %3, align 8
  call void %37(ptr noundef %38)
  br label %39

39:                                               ; preds = %21, %18
  %40 = load ptr, ptr %3, align 8
  %41 = getelementptr inbounds %struct.jpeg_compress_struct, ptr %40, i32 0, i32 1
  %42 = load ptr, ptr %41, align 8
  %43 = getelementptr inbounds %struct.jpeg_memory_mgr, ptr %42, i32 0, i32 7
  %44 = load ptr, ptr %43, align 8
  %45 = load ptr, ptr %3, align 8
  %46 = load ptr, ptr %5, align 8
  %47 = getelementptr inbounds %struct._tga_source_struct, ptr %46, i32 0, i32 3
  %48 = load ptr, ptr %47, align 8
  %49 = load i32, ptr %6, align 4
  %50 = call ptr %44(ptr noundef %45, ptr noundef %48, i32 noundef %49, i32 noundef 1, i32 noundef 1)
  %51 = load ptr, ptr %5, align 8
  %52 = getelementptr inbounds %struct._tga_source_struct, ptr %51, i32 0, i32 0
  %53 = getelementptr inbounds %struct.cjpeg_source_struct, ptr %52, i32 0, i32 4
  store ptr %50, ptr %53, align 8
  %54 = load ptr, ptr %5, align 8
  %55 = getelementptr inbounds %struct._tga_source_struct, ptr %54, i32 0, i32 11
  %56 = load ptr, ptr %55, align 8
  %57 = load ptr, ptr %3, align 8
  %58 = load ptr, ptr %4, align 8
  %59 = call i32 %56(ptr noundef %57, ptr noundef %58)
  br label %60

60:                                               ; preds = %39
  %61 = load i32, ptr %6, align 4
  %62 = add i32 %61, 1
  store i32 %62, ptr %6, align 4
  br label %12, !llvm.loop !13

63:                                               ; preds = %12
  %64 = load ptr, ptr %7, align 8
  %65 = icmp ne ptr %64, null
  br i1 %65, label %66, label %71

66:                                               ; preds = %63
  %67 = load ptr, ptr %7, align 8
  %68 = getelementptr inbounds %struct.cdjpeg_progress_mgr, ptr %67, i32 0, i32 1
  %69 = load i32, ptr %68, align 8
  %70 = add nsw i32 %69, 1
  store i32 %70, ptr %68, align 8
  br label %71

71:                                               ; preds = %66, %63
  %72 = load ptr, ptr %5, align 8
  %73 = getelementptr inbounds %struct._tga_source_struct, ptr %72, i32 0, i32 0
  %74 = getelementptr inbounds %struct.cjpeg_source_struct, ptr %73, i32 0, i32 1
  store ptr @get_memory_row, ptr %74, align 8
  %75 = load ptr, ptr %5, align 8
  %76 = getelementptr inbounds %struct._tga_source_struct, ptr %75, i32 0, i32 4
  store i32 0, ptr %76, align 8
  %77 = load ptr, ptr %3, align 8
  %78 = load ptr, ptr %4, align 8
  %79 = call i32 @get_memory_row(ptr noundef %77, ptr noundef %78)
  ret i32 %79
}