; Function Attrs: nounwind uwtable
define internal noundef i32 @preload_image(ptr noundef %0, ptr noundef %1) #0 {
  %3 = getelementptr inbounds i8, ptr %0, i64 16
  %4 = load ptr, ptr %3, align 8
  %5 = getelementptr inbounds i8, ptr %0, i64 52
  %6 = load i32, ptr %5, align 4
  %.not28 = icmp eq i32 %6, 0
  br i1 %.not28, label %._crit_edge, label %.lr.ph

.lr.ph:                                           ; preds = %2
  %.not26 = icmp eq ptr %4, null
  %7 = getelementptr inbounds i8, ptr %4, i64 8
  %8 = getelementptr inbounds i8, ptr %4, i64 16
  %9 = getelementptr inbounds i8, ptr %0, i64 8
  %10 = getelementptr inbounds i8, ptr %1, i64 80
  %11 = getelementptr inbounds i8, ptr %1, i64 32
  %12 = getelementptr inbounds i8, ptr %1, i64 128
  br i1 %.not26, label %.lr.ph.split.us, label %.lr.ph.split

.lr.ph.split.us:                                  ; preds = %.lr.ph, %.lr.ph.split.us
  %.027.us = phi i32 [ %20, %.lr.ph.split.us ], [ 0, %.lr.ph ]
  %13 = load ptr, ptr %9, align 8
  %14 = getelementptr inbounds i8, ptr %13, i64 56
  %15 = load ptr, ptr %14, align 8
  %16 = load ptr, ptr %10, align 8
  %17 = tail call ptr %15(ptr noundef nonnull %0, ptr noundef %16, i32 noundef %.027.us, i32 noundef 1, i32 noundef 1) #3
  store ptr %17, ptr %11, align 8
  %18 = load ptr, ptr %12, align 8
  %19 = tail call i32 %18(ptr noundef nonnull %0, ptr noundef %1) #3
  %20 = add nuw i32 %.027.us, 1
  %21 = load i32, ptr %5, align 4
  %22 = icmp ult i32 %20, %21
  br i1 %22, label %.lr.ph.split.us, label %._crit_edge, !llvm.loop !14

.lr.ph.split:                                     ; preds = %.lr.ph, %.lr.ph.split
  %indvars.iv = phi i64 [ %indvars.iv.next, %.lr.ph.split ], [ 0, %.lr.ph ]
  store i64 %indvars.iv, ptr %7, align 8
  %23 = load i32, ptr %5, align 4
  %24 = zext i32 %23 to i64
  store i64 %24, ptr %8, align 8
  %25 = load ptr, ptr %4, align 8
  tail call void %25(ptr noundef nonnull %0) #3
  %26 = load ptr, ptr %9, align 8
  %27 = getelementptr inbounds i8, ptr %26, i64 56
  %28 = load ptr, ptr %27, align 8
  %29 = load ptr, ptr %10, align 8
  %30 = trunc nuw i64 %indvars.iv to i32
  %31 = tail call ptr %28(ptr noundef nonnull %0, ptr noundef %29, i32 noundef %30, i32 noundef 1, i32 noundef 1) #3
  store ptr %31, ptr %11, align 8
  %32 = load ptr, ptr %12, align 8
  %33 = tail call i32 %32(ptr noundef nonnull %0, ptr noundef %1) #3
  %indvars.iv.next = add nuw nsw i64 %indvars.iv, 1
  %34 = load i32, ptr %5, align 4
  %35 = zext i32 %34 to i64
  %36 = icmp ult i64 %indvars.iv.next, %35
  br i1 %36, label %.lr.ph.split, label %._crit_edge.thread, !llvm.loop !14

._crit_edge:                                      ; preds = %.lr.ph.split.us, %2
  %.not = icmp eq ptr %4, null
  br i1 %.not, label %40, label %._crit_edge.thread

._crit_edge.thread:                               ; preds = %.lr.ph.split, %._crit_edge
  %37 = getelementptr inbounds i8, ptr %4, i64 32
  %38 = load i32, ptr %37, align 8
  %39 = add nsw i32 %38, 1
  store i32 %39, ptr %37, align 8
  br label %40

40:                                               ; preds = %._crit_edge.thread, %._crit_edge
  %41 = getelementptr inbounds i8, ptr %1, i64 8
  store ptr @get_memory_row, ptr %41, align 8
  %42 = getelementptr inbounds i8, ptr %1, i64 88
  store i32 0, ptr %42, align 8
  %43 = load i32, ptr %5, align 4
  %44 = add i32 %43, -1
  %45 = getelementptr inbounds i8, ptr %0, i64 8
  %46 = load ptr, ptr %45, align 8
  %47 = getelementptr inbounds i8, ptr %46, i64 56
  %48 = load ptr, ptr %47, align 8
  %49 = getelementptr inbounds i8, ptr %1, i64 80
  %50 = load ptr, ptr %49, align 8
  %51 = tail call ptr %48(ptr noundef nonnull %0, ptr noundef %50, i32 noundef %44, i32 noundef 1, i32 noundef 0) #3
  %52 = getelementptr inbounds i8, ptr %1, i64 32
  store ptr %51, ptr %52, align 8
  %53 = load i32, ptr %42, align 8
  %54 = add i32 %53, 1
  store i32 %54, ptr %42, align 8
  ret i32 1
}